target datalayout = "e-m:e-p270:32:32-p271:32:32-p272:64:64-i64:64-i128:128-f80:128-n8:16:32:64-S128"
target triple = "x86_64-pc-linux-gnu"

%"class.Imf_3_4::Zip" = type <{ i64, ptr, i32, [4 x i8] }>

; Function Attrs: mustprogress uwtable
define hidden void @_ZN7Imf_3_43ZipC2Emi(ptr noundef nonnull align 8 dereferenceable(20) %0, i64 noundef %1, i32 noundef %2) unnamed_addr #0 align 2 {
  %4 = alloca ptr, align 8
  %5 = alloca i64, align 8
  %6 = alloca i32, align 4
  store ptr %0, ptr %4, align 8, !tbaa !3
  store i64 %1, ptr %5, align 8, !tbaa !8
  store i32 %2, ptr %6, align 4, !tbaa !10
  %7 = load ptr, ptr %4, align 8
  %8 = getelementptr inbounds nuw %"class.Imf_3_4::Zip", ptr %7, i32 0, i32 0
  %9 = load i64, ptr %5, align 8, !tbaa !8
  store i64 %9, ptr %8, align 8, !tbaa !12
  %10 = getelementptr inbounds nuw %"class.Imf_3_4::Zip", ptr %7, i32 0, i32 1
  store ptr null, ptr %10, align 8, !tbaa !15
  %11 = getelementptr inbounds nuw %"class.Imf_3_4::Zip", ptr %7, i32 0, i32 2
  %12 = load i32, ptr %6, align 4, !tbaa !10
  store i32 %12, ptr %11, align 8, !tbaa !16
  %13 = getelementptr inbounds nuw %"class.Imf_3_4::Zip", ptr %7, i32 0, i32 0
  %14 = load i64, ptr %13, align 8, !tbaa !12
  %15 = call noalias noundef nonnull ptr @_Znam(i64 noundef %14) #10
  %16 = getelementptr inbounds nuw %"class.Imf_3_4::Zip", ptr %7, i32 0, i32 1
  store ptr %15, ptr %16, align 8, !tbaa !15
  ret void
}