; Function Attrs: mustprogress uwtable
define hidden void @_ZN7Imf_3_43ZipC2Emi(ptr noundef nonnull writeonly align 8 captures(none) dereferenceable(20) initializes((0, 20)) %0, i64 noundef %1, i32 noundef %2) unnamed_addr #0 align 2 {
  store i64 %1, ptr %0, align 8, !tbaa !3
  %4 = getelementptr inbounds nuw i8, ptr %0, i64 8
  store ptr null, ptr %4, align 8, !tbaa !11
  %5 = getelementptr inbounds nuw i8, ptr %0, i64 16
  store i32 %2, ptr %5, align 8, !tbaa !12
  %6 = tail call noalias noundef nonnull ptr @_Znam(i64 noundef %1) #13
  store ptr %6, ptr %4, align 8, !tbaa !11
  ret void
}